; ModuleID = '29/207.c'
source_filename = "29/207.c"
target datalayout = "e-m:e-p270:32:32-p271:32:32-p272:64:64-i64:64-f80:128-n8:16:32:64-S128"
target triple = "x86_64-pc-linux-gnu"

@.str = private unnamed_addr constant [3 x i8] c"%d\00", align 1
@.str.1 = private unnamed_addr constant [7 x i8] c"%.3lf\0A\00", align 1

; Function Attrs: noinline nounwind uwtable
define dso_local i32 @main() #0 {
  %1 = alloca i32, align 4
  %2 = alloca i32, align 4
  %3 = alloca i32, align 4
  %4 = alloca [100 x i32], align 16
  %5 = alloca i32, align 4
  %6 = alloca [100 x i32], align 16
  %7 = alloca i32, align 4
  %8 = alloca [100 x double], align 16
  %9 = alloca [100 x double], align 16
  store i32 0, i32* %1, align 4
  %10 = bitcast [100 x double]* %9 to i8*
  call void @llvm.memset.p0i8.i64(i8* align 16 %10, i8 0, i64 800, i1 false)
  %11 = call i32 (i8*, ...) @__isoc99_scanf(i8* getelementptr inbounds ([3 x i8], [3 x i8]* @.str, i64 0, i64 0), i32* %2)
  store i32 0, i32* %5, align 4
  br label %12

12:                                               ; preds = %92, %0
  %13 = load i32, i32* %5, align 4
  %14 = load i32, i32* %2, align 4
  %15 = icmp slt i32 %13, %14
  br i1 %15, label %16, label %95

16:                                               ; preds = %12
  %17 = call i32 (i8*, ...) @__isoc99_scanf(i8* getelementptr inbounds ([3 x i8], [3 x i8]* @.str, i64 0, i64 0), i32* %3)
  store i32 0, i32* %7, align 4
  br label %18

18:                                               ; preds = %46, %16
  %19 = load i32, i32* %7, align 4
  %20 = load i32, i32* %3, align 4
  %21 = icmp slt i32 %19, %20
  br i1 %21, label %22, label %49

22:                                               ; preds = %18
  %23 = getelementptr inbounds [100 x i32], [100 x i32]* %4, i64 0, i64 0
  store i32 1, i32* %23, align 16
  %24 = getelementptr inbounds [100 x i32], [100 x i32]* %6, i64 0, i64 0
  store i32 2, i32* %24, align 16
  %25 = load i32, i32* %7, align 4
  %26 = sext i32 %25 to i64
  %27 = getelementptr inbounds [100 x i32], [100 x i32]* %6, i64 0, i64 %26
  %28 = load i32, i32* %27, align 4
  %29 = load i32, i32* %7, align 4
  %30 = add nsw i32 %29, 1
  %31 = sext i32 %30 to i64
  %32 = getelementptr inbounds [100 x i32], [100 x i32]* %4, i64 0, i64 %31
  store i32 %28, i32* %32, align 4
  %33 = load i32, i32* %7, align 4
  %34 = sext i32 %33 to i64
  %35 = getelementptr inbounds [100 x i32], [100 x i32]* %4, i64 0, i64 %34
  %36 = load i32, i32* %35, align 4
  %37 = load i32, i32* %7, align 4
  %38 = sext i32 %37 to i64
  %39 = getelementptr inbounds [100 x i32], [100 x i32]* %6, i64 0, i64 %38
  %40 = load i32, i32* %39, align 4
  %41 = add nsw i32 %36, %40
  %42 = load i32, i32* %7, align 4
  %43 = add nsw i32 %42, 1
  %44 = sext i32 %43 to i64
  %45 = getelementptr inbounds [100 x i32], [100 x i32]* %6, i64 0, i64 %44
  store i32 %41, i32* %45, align 4
  br label %46

46:                                               ; preds = %22
  %47 = load i32, i32* %7, align 4
  %48 = add nsw i32 %47, 1
  store i32 %48, i32* %7, align 4
  br label %18

49:                                               ; preds = %18
  store i32 0, i32* %7, align 4
  br label %50

50:                                               ; preds = %70, %49
  %51 = load i32, i32* %7, align 4
  %52 = load i32, i32* %3, align 4
  %53 = icmp slt i32 %51, %52
  br i1 %53, label %54, label %73

54:                                               ; preds = %50
  %55 = load i32, i32* %7, align 4
  %56 = sext i32 %55 to i64
  %57 = getelementptr inbounds [100 x i32], [100 x i32]* %6, i64 0, i64 %56
  %58 = load i32, i32* %57, align 4
  %59 = sitofp i32 %58 to double
  %60 = fmul double 1.000000e+00, %59
  %61 = load i32, i32* %7, align 4
  %62 = sext i32 %61 to i64
  %63 = getelementptr inbounds [100 x i32], [100 x i32]* %4, i64 0, i64 %62
  %64 = load i32, i32* %63, align 4
  %65 = sitofp i32 %64 to double
  %66 = fdiv double %60, %65
  %67 = load i32, i32* %7, align 4
  %68 = sext i32 %67 to i64
  %69 = getelementptr inbounds [100 x double], [100 x double]* %8, i64 0, i64 %68
  store double %66, double* %69, align 8
  br label %70

70:                                               ; preds = %54
  %71 = load i32, i32* %7, align 4
  %72 = add nsw i32 %71, 1
  store i32 %72, i32* %7, align 4
  br label %50

73:                                               ; preds = %50
  store i32 0, i32* %7, align 4
  br label %74

74:                                               ; preds = %88, %73
  %75 = load i32, i32* %7, align 4
  %76 = load i32, i32* %3, align 4
  %77 = icmp slt i32 %75, %76
  br i1 %77, label %78, label %91

78:                                               ; preds = %74
  %79 = load i32, i32* %7, align 4
  %80 = sext i32 %79 to i64
  %81 = getelementptr inbounds [100 x double], [100 x double]* %8, i64 0, i64 %80
  %82 = load double, double* %81, align 8
  %83 = load i32, i32* %5, align 4
  %84 = sext i32 %83 to i64
  %85 = getelementptr inbounds [100 x double], [100 x double]* %9, i64 0, i64 %84
  %86 = load double, double* %85, align 8
  %87 = fadd double %86, %82
  store double %87, double* %85, align 8
  br label %88

88:                                               ; preds = %78
  %89 = load i32, i32* %7, align 4
  %90 = add nsw i32 %89, 1
  store i32 %90, i32* %7, align 4
  br label %74

91:                                               ; preds = %74
  br label %92

92:                                               ; preds = %91
  %93 = load i32, i32* %5, align 4
  %94 = add nsw i32 %93, 1
  store i32 %94, i32* %5, align 4
  br label %12

95:                                               ; preds = %12
  store i32 0, i32* %5, align 4
  br label %96

96:                                               ; preds = %106, %95
  %97 = load i32, i32* %5, align 4
  %98 = load i32, i32* %2, align 4
  %99 = icmp slt i32 %97, %98
  br i1 %99, label %100, label %109

100:                                              ; preds = %96
  %101 = load i32, i32* %5, align 4
  %102 = sext i32 %101 to i64
  %103 = getelementptr inbounds [100 x double], [100 x double]* %9, i64 0, i64 %102
  %104 = load double, double* %103, align 8
  %105 = call i32 (i8*, ...) @printf(i8* getelementptr inbounds ([7 x i8], [7 x i8]* @.str.1, i64 0, i64 0), double %104)
  br label %106

106:                                              ; preds = %100
  %107 = load i32, i32* %5, align 4
  %108 = add nsw i32 %107, 1
  store i32 %108, i32* %5, align 4
  br label %96

109:                                              ; preds = %96
  ret i32 0
}

; Function Attrs: argmemonly nounwind willreturn
declare void @llvm.memset.p0i8.i64(i8* nocapture writeonly, i8, i64, i1 immarg) #1

declare dso_local i32 @__isoc99_scanf(i8*, ...) #2

declare dso_local i32 @printf(i8*, ...) #2


!llvm.module.flags = !{!0}
!llvm.ident = !{!1}

!0 = !{i32 1, !"wchar_size", i32 4}
!1 = !{!"clang version 10.0.0-4ubuntu1 "}
